target datalayout = "e-m:e-p270:32:32-p271:32:32-p272:64:64-i64:64-i128:128-f80:128-n8:16:32:64-S128"
target triple = "x86_64-unknown-linux-gnu"

%"class.hermes::parser::detail::JSParserImpl" = type { ptr, ptr, %"class.hermes::parser::JSLexer", ptr, i32, ptr, i32, i8, i8, i8, %"class.llvh::SmallVector.15", i32, i8, i8, ptr, ptr, ptr, ptr, ptr, ptr, ptr, ptr, ptr, ptr, ptr, ptr, ptr, ptr, ptr, ptr, ptr, ptr, ptr, ptr, ptr, ptr, ptr, ptr, ptr, ptr, ptr, ptr, ptr, ptr, ptr, ptr, ptr, ptr, ptr, ptr, ptr, ptr, ptr, ptr, ptr, ptr, ptr, ptr, ptr, ptr, ptr, ptr, ptr, ptr, ptr, ptr, ptr, ptr, ptr, ptr, ptr, ptr, ptr, ptr, ptr, ptr, ptr, ptr, ptr, ptr, ptr, ptr, ptr, ptr, ptr, [122 x ptr] }
%"class.hermes::parser::JSLexer" = type { ptr, ptr, i32, %"class.std::unique_ptr.2", ptr, ptr, i8, i8, i8, i8, [4 x i8], %"class.hermes::parser::Token", %"class.llvh::SMLoc", ptr, ptr, ptr, i8, %"class.llvh::SmallString", %"class.llvh::SmallString", [46 x ptr], %"class.std::vector", %"class.std::vector.10" }
%"class.std::unique_ptr.2" = type { %"struct.std::__uniq_ptr_data.3" }
%"struct.std::__uniq_ptr_data.3" = type { %"class.std::__uniq_ptr_impl.4" }
%"class.std::__uniq_ptr_impl.4" = type { %"class.std::tuple.5" }
%"class.std::tuple.5" = type { %"struct.std::_Tuple_impl.6" }
%"struct.std::_Tuple_impl.6" = type { %"struct.std::_Head_base.9" }
%"struct.std::_Head_base.9" = type { ptr }
%"class.hermes::parser::Token" = type <{ i32, [4 x i8], %"class.llvh::SMRange", double, ptr, ptr, ptr, ptr, i8, [7 x i8] }>
%"class.llvh::SMRange" = type { %"class.llvh::SMLoc", %"class.llvh::SMLoc" }
%"class.llvh::SMLoc" = type { ptr }
%"class.llvh::SmallString" = type { %"class.llvh::SmallVector" }
%"class.llvh::SmallVector" = type { %"class.llvh::SmallVectorImpl", %"struct.llvh::SmallVectorStorage" }
%"class.llvh::SmallVectorImpl" = type { %"class.llvh::SmallVectorTemplateBase" }
%"class.llvh::SmallVectorTemplateBase" = type { %"class.llvh::SmallVectorTemplateCommon" }
%"class.llvh::SmallVectorTemplateCommon" = type { %"class.llvh::SmallVectorBase" }
%"class.llvh::SmallVectorBase" = type { ptr, i32, i32 }
%"struct.llvh::SmallVectorStorage" = type { [256 x %"struct.llvh::AlignedCharArrayUnion"] }
%"struct.llvh::AlignedCharArrayUnion" = type { %"struct.llvh::AlignedCharArray" }
%"struct.llvh::AlignedCharArray" = type { [1 x i8] }
%"class.std::vector" = type { %"struct.std::_Vector_base" }
%"struct.std::_Vector_base" = type { %"struct.std::_Vector_base<hermes::parser::StoredComment, std::allocator<hermes::parser::StoredComment>>::_Vector_impl" }
%"struct.std::_Vector_base<hermes::parser::StoredComment, std::allocator<hermes::parser::StoredComment>>::_Vector_impl" = type { %"struct.std::_Vector_base<hermes::parser::StoredComment, std::allocator<hermes::parser::StoredComment>>::_Vector_impl_data" }
%"struct.std::_Vector_base<hermes::parser::StoredComment, std::allocator<hermes::parser::StoredComment>>::_Vector_impl_data" = type { ptr, ptr, ptr }
%"class.std::vector.10" = type { %"struct.std::_Vector_base.11" }
%"struct.std::_Vector_base.11" = type { %"struct.std::_Vector_base<hermes::parser::StoredToken, std::allocator<hermes::parser::StoredToken>>::_Vector_impl" }
%"struct.std::_Vector_base<hermes::parser::StoredToken, std::allocator<hermes::parser::StoredToken>>::_Vector_impl" = type { %"struct.std::_Vector_base<hermes::parser::StoredToken, std::allocator<hermes::parser::StoredToken>>::_Vector_impl_data" }
%"struct.std::_Vector_base<hermes::parser::StoredToken, std::allocator<hermes::parser::StoredToken>>::_Vector_impl_data" = type { ptr, ptr, ptr }
%"class.llvh::SmallVector.15" = type { %"class.llvh::SmallVectorImpl.16", %"struct.llvh::SmallVectorStorage.19" }
%"class.llvh::SmallVectorImpl.16" = type { %"class.llvh::SmallVectorTemplateBase.17" }
%"class.llvh::SmallVectorTemplateBase.17" = type { %"class.llvh::SmallVectorTemplateCommon.18" }
%"class.llvh::SmallVectorTemplateCommon.18" = type { %"class.llvh::SmallVectorBase" }
%"struct.llvh::SmallVectorStorage.19" = type { [1 x %"struct.llvh::AlignedCharArrayUnion.20"] }
%"struct.llvh::AlignedCharArrayUnion.20" = type { %"struct.llvh::AlignedCharArray.21" }
%"struct.llvh::AlignedCharArray.21" = type { [8 x i8] }

; Function Attrs: mustprogress nounwind uwtable
define linkonce_odr hidden { ptr, ptr } @_ZNK6hermes6parser5Token14getSourceRangeEv(ptr noundef nonnull align 8 dereferenceable(65) %this) #0 comdat align 2 {
entry:
  %retval = alloca %"class.llvh::SMRange", align 8
  %this.addr = alloca ptr, align 8
  store ptr %this, ptr %this.addr, align 8
  %this1 = load ptr, ptr %this.addr, align 8
  %range_ = getelementptr inbounds %"class.hermes::parser::Token", ptr %this1, i32 0, i32 2
  call void @llvm.memcpy.p0.p0.i64(ptr align 8 %retval, ptr align 8 %range_, i64 16, i1 false)
  %0 = load { ptr, ptr }, ptr %retval, align 8
  ret { ptr, ptr } %0
}

; Function Attrs: mustprogress nounwind uwtable
define linkonce_odr hidden noundef ptr @_ZNK6hermes6parser5Token13getIdentifierEv(ptr noundef nonnull align 8 dereferenceable(65) %this) #0 comdat align 2 {
entry:
  %this.addr = alloca ptr, align 8
  store ptr %this, ptr %this.addr, align 8
  %this1 = load ptr, ptr %this.addr, align 8
  %ident_ = getelementptr inbounds %"class.hermes::parser::Token", ptr %this1, i32 0, i32 4
  %0 = load ptr, ptr %ident_, align 8
  ret ptr %0
}

; Function Attrs: mustprogress nounwind uwtable
define linkonce_odr hidden noundef i32 @_ZNK6hermes6parser5Token7getKindEv(ptr noundef nonnull align 8 dereferenceable(65) %this) #0 comdat align 2 {
entry:
  %this.addr = alloca ptr, align 8
  store ptr %this, ptr %this.addr, align 8
  %this1 = load ptr, ptr %this.addr, align 8
  %kind_ = getelementptr inbounds %"class.hermes::parser::Token", ptr %this1, i32 0, i32 0
  %0 = load i32, ptr %kind_, align 8
  ret i32 %0
}

; Function Attrs: mustprogress nounwind uwtable
define linkonce_odr hidden { ptr, ptr } @_ZN6hermes6parser6detail12JSParserImpl7advanceENS0_7JSLexer14GrammarContextE(ptr noundef nonnull align 8 dereferenceable(2752) %this, i32 noundef %grammarContext) #0 comdat align 2 {
entry:
  %retval = alloca %"class.llvh::SMRange", align 8
  %this.addr = alloca ptr, align 8
  %grammarContext.addr = alloca i32, align 4
  store ptr %this, ptr %this.addr, align 8
  store i32 %grammarContext, ptr %grammarContext.addr, align 4
  %this1 = load ptr, ptr %this.addr, align 8
  %tok_ = getelementptr inbounds %"class.hermes::parser::detail::JSParserImpl", ptr %this1, i32 0, i32 3
  %0 = load ptr, ptr %tok_, align 8
  %call = call { ptr, ptr } @_ZNK6hermes6parser5Token14getSourceRangeEv(ptr noundef nonnull align 8 dereferenceable(65) %0)
  %1 = getelementptr inbounds { ptr, ptr }, ptr %retval, i32 0, i32 0
  %2 = extractvalue { ptr, ptr } %call, 0
  store ptr %2, ptr %1, align 8
  %3 = getelementptr inbounds { ptr, ptr }, ptr %retval, i32 0, i32 1
  %4 = extractvalue { ptr, ptr } %call, 1
  store ptr %4, ptr %3, align 8
  %lexer_ = getelementptr inbounds %"class.hermes::parser::detail::JSParserImpl", ptr %this1, i32 0, i32 2
  %5 = load i32, ptr %grammarContext.addr, align 4
  %call2 = call noundef ptr @_ZN6hermes6parser7JSLexer7advanceENS1_14GrammarContextE(ptr noundef nonnull align 8 dereferenceable(1128) %lexer_, i32 noundef %5)
  %tok_3 = getelementptr inbounds %"class.hermes::parser::detail::JSParserImpl", ptr %this1, i32 0, i32 3
  store ptr %call2, ptr %tok_3, align 8
  %6 = load { ptr, ptr }, ptr %retval, align 8
  ret { ptr, ptr } %6
}

; Function Attrs: mustprogress nounwind uwtable
define linkonce_odr hidden noundef zeroext i1 @_ZNK6hermes6parser6detail12JSParserImpl5checkEPNS_12UniqueStringE(ptr noundef nonnull align 8 dereferenceable(2752) %this, ptr noundef %ident) #0 comdat align 2 {
entry:
  %this.addr = alloca ptr, align 8
  %ident.addr = alloca ptr, align 8
  store ptr %this, ptr %this.addr, align 8
  store ptr %ident, ptr %ident.addr, align 8
  %this1 = load ptr, ptr %this.addr, align 8
  %tok_ = getelementptr inbounds %"class.hermes::parser::detail::JSParserImpl", ptr %this1, i32 0, i32 3
  %0 = load ptr, ptr %tok_, align 8
  %call = call noundef i32 @_ZNK6hermes6parser5Token7getKindEv(ptr noundef nonnull align 8 dereferenceable(65) %0)
  %cmp = icmp eq i32 %call, 1
  br i1 %cmp, label %land.rhs, label %land.end

land.rhs:                                         ; preds = %entry
  %tok_2 = getelementptr inbounds %"class.hermes::parser::detail::JSParserImpl", ptr %this1, i32 0, i32 3
  %1 = load ptr, ptr %tok_2, align 8
  %call3 = call noundef ptr @_ZNK6hermes6parser5Token13getIdentifierEv(ptr noundef nonnull align 8 dereferenceable(65) %1)
  %2 = load ptr, ptr %ident.addr, align 8
  %cmp4 = icmp eq ptr %call3, %2
  br label %land.end

land.end:                                         ; preds = %land.rhs, %entry
  %3 = phi i1 [ false, %entry ], [ %cmp4, %land.rhs ]
  ret i1 %3
}

; Function Attrs: mustprogress nounwind uwtable
define hidden noundef zeroext i1 @_ZN6hermes6parser6detail12JSParserImpl11checkAndEatEPNS_12UniqueStringENS0_7JSLexer14GrammarContextE(ptr noundef nonnull align 8 dereferenceable(2752) %this, ptr noundef %ident, i32 noundef %grammarContext) #0 align 2 {
entry:
  %retval = alloca i1, align 1
  %this.addr = alloca ptr, align 8
  %ident.addr = alloca ptr, align 8
  %grammarContext.addr = alloca i32, align 4
  %coerce = alloca %"class.llvh::SMRange", align 8
  store ptr %this, ptr %this.addr, align 8
  store ptr %ident, ptr %ident.addr, align 8
  store i32 %grammarContext, ptr %grammarContext.addr, align 4
  %this1 = load ptr, ptr %this.addr, align 8
  %0 = load ptr, ptr %ident.addr, align 8
  %call = call noundef zeroext i1 @_ZNK6hermes6parser6detail12JSParserImpl5checkEPNS_12UniqueStringE(ptr noundef nonnull align 8 dereferenceable(2752) %this1, ptr noundef %0)
  br i1 %call, label %if.then, label %if.end

if.then:                                          ; preds = %entry
  %1 = load i32, ptr %grammarContext.addr, align 4
  %call2 = call { ptr, ptr } @_ZN6hermes6parser6detail12JSParserImpl7advanceENS0_7JSLexer14GrammarContextE(ptr noundef nonnull align 8 dereferenceable(2752) %this1, i32 noundef %1)
  %2 = getelementptr inbounds { ptr, ptr }, ptr %coerce, i32 0, i32 0
  %3 = extractvalue { ptr, ptr } %call2, 0
  store ptr %3, ptr %2, align 8
  %4 = getelementptr inbounds { ptr, ptr }, ptr %coerce, i32 0, i32 1
  %5 = extractvalue { ptr, ptr } %call2, 1
  store ptr %5, ptr %4, align 8
  store i1 true, ptr %retval, align 1
  br label %return

if.end:                                           ; preds = %entry
  store i1 false, ptr %retval, align 1
  br label %return

return:                                           ; preds = %if.end, %if.then
  %6 = load i1, ptr %retval, align 1
  ret i1 %6
}