; Function Attrs: mustprogress nounwind uwtable
define hidden noundef zeroext i1 @_ZN6hermes6parser6detail12JSParserImpl11checkAndEatEPNS_12UniqueStringENS0_7JSLexer14GrammarContextE(ptr noundef nonnull align 8 dereferenceable(2752) %this, ptr noundef readnone %ident, i32 noundef %grammarContext) local_unnamed_addr #0 align 2 {
entry:
  %tok_.i = getelementptr inbounds i8, ptr %this, i64 1144
  %0 = load ptr, ptr %tok_.i, align 8
  %1 = load i32, ptr %0, align 8
  %cmp.i = icmp eq i32 %1, 1
  br i1 %cmp.i, label %_ZNK6hermes6parser6detail12JSParserImpl5checkEPNS_12UniqueStringE.exit, label %return

_ZNK6hermes6parser6detail12JSParserImpl5checkEPNS_12UniqueStringE.exit: ; preds = %entry
  %ident_.i.i = getelementptr inbounds i8, ptr %0, i64 32
  %2 = load ptr, ptr %ident_.i.i, align 8
  %cmp4.i = icmp eq ptr %2, %ident
  br i1 %cmp4.i, label %if.then, label %return

if.then:                                          ; preds = %_ZNK6hermes6parser6detail12JSParserImpl5checkEPNS_12UniqueStringE.exit
  %lexer_.i = getelementptr inbounds i8, ptr %this, i64 16
  %call2.i = tail call noundef ptr @_ZN6hermes6parser7JSLexer7advanceENS1_14GrammarContextE(ptr noundef nonnull align 8 dereferenceable(1128) %lexer_.i, i32 noundef %grammarContext) #16
  store ptr %call2.i, ptr %tok_.i, align 8
  br label %return

return:                                           ; preds = %entry, %_ZNK6hermes6parser6detail12JSParserImpl5checkEPNS_12UniqueStringE.exit, %if.then
  %3 = phi i1 [ false, %_ZNK6hermes6parser6detail12JSParserImpl5checkEPNS_12UniqueStringE.exit ], [ true, %if.then ], [ false, %entry ]
  ret i1 %3
}